; Function Attrs: mustprogress uwtable
define void @uset_applyPropertyAlias_75(ptr noundef %set, ptr noundef %prop, i32 noundef %propLength, ptr noundef %value, i32 noundef %valueLength, ptr noundef %ec) local_unnamed_addr #0 personality ptr @__gxx_personality_v0 {
entry:
  %p = alloca %"class.icu_75::UnicodeString", align 8
  %v = alloca %"class.icu_75::UnicodeString", align 8
  call void @_ZN6icu_7513UnicodeStringC1EPKDsi(ptr noundef nonnull align 8 dereferenceable(64) %p, ptr noundef %prop, i32 noundef %propLength)
  invoke void @_ZN6icu_7513UnicodeStringC1EPKDsi(ptr noundef nonnull align 8 dereferenceable(64) %v, ptr noundef %value, i32 noundef %valueLength)
          to label %invoke.cont unwind label %lpad

invoke.cont:                                      ; preds = %entry
  %call = invoke noundef nonnull align 8 dereferenceable(200) ptr @_ZN6icu_7510UnicodeSet18applyPropertyAliasERKNS_13UnicodeStringES3_R10UErrorCode(ptr noundef nonnull align 8 dereferenceable(200) %set, ptr noundef nonnull align 8 dereferenceable(64) %p, ptr noundef nonnull align 8 dereferenceable(64) %v, ptr noundef nonnull align 4 dereferenceable(4) %ec)
          to label %invoke.cont2 unwind label %lpad1

invoke.cont2:                                     ; preds = %invoke.cont
  call void @_ZN6icu_7513UnicodeStringD1Ev(ptr noundef nonnull align 8 dereferenceable(64) %v) #3
  call void @_ZN6icu_7513UnicodeStringD1Ev(ptr noundef nonnull align 8 dereferenceable(64) %p) #3
  ret void

lpad:                                             ; preds = %entry
  %0 = landingpad { ptr, i32 }
          cleanup
  br label %ehcleanup

lpad1:                                            ; preds = %invoke.cont
  %1 = landingpad { ptr, i32 }
          cleanup
  call void @_ZN6icu_7513UnicodeStringD1Ev(ptr noundef nonnull align 8 dereferenceable(64) %v) #3
  br label %ehcleanup

ehcleanup:                                        ; preds = %lpad1, %lpad
  %.pn = phi { ptr, i32 } [ %1, %lpad1 ], [ %0, %lpad ]
  call void @_ZN6icu_7513UnicodeStringD1Ev(ptr noundef nonnull align 8 dereferenceable(64) %p) #3
  resume { ptr, i32 } %.pn
}